; ModuleID = '41/911.cpp'
source_filename = "41/911.cpp"
target datalayout = "e-m:e-p270:32:32-p271:32:32-p272:64:64-i64:64-f80:128-n8:16:32:64-S128"
target triple = "x86_64-pc-linux-gnu"

%"class.std::ios_base::Init" = type { i8 }
%"class.std::basic_ostream" = type { i32 (...)**, %"class.std::basic_ios" }
%"class.std::basic_ios" = type { %"class.std::ios_base", %"class.std::basic_ostream"*, i8, i8, %"class.std::basic_streambuf"*, %"class.std::ctype"*, %"class.std::num_put"*, %"class.std::num_get"* }
%"class.std::ios_base" = type { i32 (...)**, i64, i64, i32, i32, i32, %"struct.std::ios_base::_Callback_list"*, %"struct.std::ios_base::_Words", [8 x %"struct.std::ios_base::_Words"], i32, %"struct.std::ios_base::_Words"*, %"class.std::locale" }
%"struct.std::ios_base::_Callback_list" = type { %"struct.std::ios_base::_Callback_list"*, void (i32, %"class.std::ios_base"*, i32)*, i32, i32 }
%"struct.std::ios_base::_Words" = type { i8*, i64 }
%"class.std::locale" = type { %"class.std::locale::_Impl"* }
%"class.std::locale::_Impl" = type { i32, %"class.std::locale::facet"**, i64, %"class.std::locale::facet"**, i8** }
%"class.std::locale::facet" = type <{ i32 (...)**, i32, [4 x i8] }>
%"class.std::basic_streambuf" = type { i32 (...)**, i8*, i8*, i8*, i8*, i8*, i8*, %"class.std::locale" }
%"class.std::ctype" = type <{ %"class.std::locale::facet.base", [4 x i8], %struct.__locale_struct*, i8, [7 x i8], i32*, i32*, i16*, i8, [256 x i8], [256 x i8], i8, [6 x i8] }>
%"class.std::locale::facet.base" = type <{ i32 (...)**, i32 }>
%struct.__locale_struct = type { [13 x %struct.__locale_data*], i16*, i32*, i32*, [13 x i8*] }
%struct.__locale_data = type opaque
%"class.std::num_put" = type { %"class.std::locale::facet.base", [4 x i8] }
%"class.std::num_get" = type { %"class.std::locale::facet.base", [4 x i8] }

@_ZStL8__ioinit = internal global %"class.std::ios_base::Init" zeroinitializer, align 1
@__dso_handle = external hidden global i8
@_ZSt4cout = external dso_local global %"class.std::basic_ostream", align 8
@.str = private unnamed_addr constant [2 x i8] c" \00", align 1
@llvm.global_ctors = appending global [1 x { i32, void ()*, i8* }] [{ i32, void ()*, i8* } { i32 65535, void ()* @_GLOBAL__sub_I_911.cpp, i8* null }]

; Function Attrs: noinline uwtable
define internal void @__cxx_global_var_init() #0 section ".text.startup" {
  call void @_ZNSt8ios_base4InitC1Ev(%"class.std::ios_base::Init"* @_ZStL8__ioinit)
  %1 = call i32 @__cxa_atexit(void (i8*)* bitcast (void (%"class.std::ios_base::Init"*)* @_ZNSt8ios_base4InitD1Ev to void (i8*)*), i8* getelementptr inbounds (%"class.std::ios_base::Init", %"class.std::ios_base::Init"* @_ZStL8__ioinit, i32 0, i32 0), i8* @__dso_handle) #3
  ret void
}

declare dso_local void @_ZNSt8ios_base4InitC1Ev(%"class.std::ios_base::Init"*) unnamed_addr #1

; Function Attrs: nounwind
declare dso_local void @_ZNSt8ios_base4InitD1Ev(%"class.std::ios_base::Init"*) unnamed_addr #2

; Function Attrs: nounwind
declare dso_local i32 @__cxa_atexit(void (i8*)*, i8*, i8*) #3

; Function Attrs: noinline norecurse uwtable
define dso_local i32 @main() #4 {
  %1 = alloca i32, align 4
  %2 = alloca i32, align 4
  %3 = alloca i32, align 4
  %4 = alloca i32, align 4
  %5 = alloca i32, align 4
  %6 = alloca i32, align 4
  %7 = alloca i32, align 4
  %8 = alloca i32, align 4
  %9 = alloca i32, align 4
  %10 = alloca i32, align 4
  %11 = alloca i32, align 4
  store i32 0, i32* %1, align 4
  store i32 1, i32* %2, align 4
  br label %12

12:                                               ; preds = %189, %0
  %13 = load i32, i32* %2, align 4
  %14 = icmp sle i32 %13, 5
  br i1 %14, label %15, label %192

15:                                               ; preds = %12
  store i32 1, i32* %3, align 4
  br label %16

16:                                               ; preds = %185, %15
  %17 = load i32, i32* %3, align 4
  %18 = icmp sle i32 %17, 5
  br i1 %18, label %19, label %188

19:                                               ; preds = %16
  %20 = load i32, i32* %3, align 4
  %21 = load i32, i32* %2, align 4
  %22 = icmp eq i32 %20, %21
  br i1 %22, label %23, label %24

23:                                               ; preds = %19
  br label %185

24:                                               ; preds = %19
  store i32 1, i32* %4, align 4
  br label %25

25:                                               ; preds = %181, %24
  %26 = load i32, i32* %4, align 4
  %27 = icmp sle i32 %26, 5
  br i1 %27, label %28, label %184

28:                                               ; preds = %25
  %29 = load i32, i32* %4, align 4
  %30 = load i32, i32* %2, align 4
  %31 = icmp eq i32 %29, %30
  br i1 %31, label %36, label %32

32:                                               ; preds = %28
  %33 = load i32, i32* %4, align 4
  %34 = load i32, i32* %3, align 4
  %35 = icmp eq i32 %33, %34
  br i1 %35, label %36, label %37

36:                                               ; preds = %32, %28
  br label %181

37:                                               ; preds = %32
  store i32 1, i32* %5, align 4
  br label %38

38:                                               ; preds = %177, %37
  %39 = load i32, i32* %5, align 4
  %40 = icmp sle i32 %39, 5
  br i1 %40, label %41, label %180

41:                                               ; preds = %38
  %42 = load i32, i32* %5, align 4
  %43 = load i32, i32* %2, align 4
  %44 = icmp eq i32 %42, %43
  br i1 %44, label %53, label %45

45:                                               ; preds = %41
  %46 = load i32, i32* %5, align 4
  %47 = load i32, i32* %3, align 4
  %48 = icmp eq i32 %46, %47
  br i1 %48, label %53, label %49

49:                                               ; preds = %45
  %50 = load i32, i32* %5, align 4
  %51 = load i32, i32* %4, align 4
  %52 = icmp eq i32 %50, %51
  br i1 %52, label %53, label %54

53:                                               ; preds = %49, %45, %41
  br label %177

54:                                               ; preds = %49
  store i32 1, i32* %6, align 4
  br label %55

55:                                               ; preds = %173, %54
  %56 = load i32, i32* %6, align 4
  %57 = icmp sle i32 %56, 5
  br i1 %57, label %58, label %176

58:                                               ; preds = %55
  %59 = load i32, i32* %6, align 4
  %60 = load i32, i32* %2, align 4
  %61 = icmp eq i32 %59, %60
  br i1 %61, label %74, label %62

62:                                               ; preds = %58
  %63 = load i32, i32* %6, align 4
  %64 = load i32, i32* %3, align 4
  %65 = icmp eq i32 %63, %64
  br i1 %65, label %74, label %66

66:                                               ; preds = %62
  %67 = load i32, i32* %6, align 4
  %68 = load i32, i32* %4, align 4
  %69 = icmp eq i32 %67, %68
  br i1 %69, label %74, label %70

70:                                               ; preds = %66
  %71 = load i32, i32* %6, align 4
  %72 = load i32, i32* %5, align 4
  %73 = icmp eq i32 %71, %72
  br i1 %73, label %74, label %75

74:                                               ; preds = %70, %66, %62, %58
  br label %173

75:                                               ; preds = %70
  %76 = load i32, i32* %6, align 4
  %77 = icmp eq i32 %76, 2
  br i1 %77, label %81, label %78

78:                                               ; preds = %75
  %79 = load i32, i32* %6, align 4
  %80 = icmp eq i32 %79, 3
  br i1 %80, label %81, label %82

81:                                               ; preds = %78, %75
  br label %173

82:                                               ; preds = %78
  %83 = load i32, i32* %2, align 4
  %84 = icmp eq i32 %83, 1
  %85 = zext i1 %84 to i32
  %86 = load i32, i32* %2, align 4
  %87 = icmp eq i32 %86, 2
  %88 = zext i1 %87 to i32
  %89 = add nsw i32 %85, %88
  %90 = load i32, i32* %6, align 4
  %91 = icmp eq i32 %90, 1
  %92 = zext i1 %91 to i32
  %93 = add nsw i32 %89, %92
  store i32 %93, i32* %7, align 4
  %94 = load i32, i32* %3, align 4
  %95 = icmp eq i32 %94, 1
  %96 = zext i1 %95 to i32
  %97 = load i32, i32* %3, align 4
  %98 = icmp eq i32 %97, 2
  %99 = zext i1 %98 to i32
  %100 = add nsw i32 %96, %99
  %101 = load i32, i32* %3, align 4
  %102 = icmp eq i32 %101, 2
  %103 = zext i1 %102 to i32
  %104 = add nsw i32 %100, %103
  store i32 %104, i32* %8, align 4
  %105 = load i32, i32* %4, align 4
  %106 = icmp eq i32 %105, 1
  %107 = zext i1 %106 to i32
  %108 = load i32, i32* %4, align 4
  %109 = icmp eq i32 %108, 2
  %110 = zext i1 %109 to i32
  %111 = add nsw i32 %107, %110
  %112 = load i32, i32* %2, align 4
  %113 = icmp eq i32 %112, 5
  %114 = zext i1 %113 to i32
  %115 = add nsw i32 %111, %114
  store i32 %115, i32* %9, align 4
  %116 = load i32, i32* %5, align 4
  %117 = icmp eq i32 %116, 1
  %118 = zext i1 %117 to i32
  %119 = load i32, i32* %5, align 4
  %120 = icmp eq i32 %119, 2
  %121 = zext i1 %120 to i32
  %122 = add nsw i32 %118, %121
  %123 = load i32, i32* %4, align 4
  %124 = icmp ne i32 %123, 1
  %125 = zext i1 %124 to i32
  %126 = add nsw i32 %122, %125
  store i32 %126, i32* %10, align 4
  %127 = load i32, i32* %6, align 4
  %128 = icmp eq i32 %127, 1
  %129 = zext i1 %128 to i32
  %130 = load i32, i32* %6, align 4
  %131 = icmp eq i32 %130, 2
  %132 = zext i1 %131 to i32
  %133 = add nsw i32 %129, %132
  %134 = load i32, i32* %5, align 4
  %135 = icmp eq i32 %134, 1
  %136 = zext i1 %135 to i32
  %137 = add nsw i32 %133, %136
  store i32 %137, i32* %11, align 4
  %138 = load i32, i32* %7, align 4
  %139 = srem i32 %138, 2
  %140 = icmp eq i32 %139, 0
  br i1 %140, label %141, label %172

141:                                              ; preds = %82
  %142 = load i32, i32* %8, align 4
  %143 = srem i32 %142, 2
  %144 = icmp eq i32 %143, 0
  br i1 %144, label %145, label %172

145:                                              ; preds = %141
  %146 = load i32, i32* %9, align 4
  %147 = srem i32 %146, 2
  %148 = icmp eq i32 %147, 0
  br i1 %148, label %149, label %172

149:                                              ; preds = %145
  %150 = load i32, i32* %10, align 4
  %151 = srem i32 %150, 2
  %152 = icmp eq i32 %151, 0
  br i1 %152, label %153, label %172

153:                                              ; preds = %149
  %154 = load i32, i32* %11, align 4
  %155 = srem i32 %154, 2
  %156 = icmp eq i32 %155, 0
  br i1 %156, label %157, label %172

157:                                              ; preds = %153
  %158 = load i32, i32* %2, align 4
  %159 = call dereferenceable(272) %"class.std::basic_ostream"* @_ZNSolsEi(%"class.std::basic_ostream"* @_ZSt4cout, i32 %158)
  %160 = call dereferenceable(272) %"class.std::basic_ostream"* @_ZStlsISt11char_traitsIcEERSt13basic_ostreamIcT_ES5_PKc(%"class.std::basic_ostream"* dereferenceable(272) %159, i8* getelementptr inbounds ([2 x i8], [2 x i8]* @.str, i64 0, i64 0))
  %161 = load i32, i32* %3, align 4
  %162 = call dereferenceable(272) %"class.std::basic_ostream"* @_ZNSolsEi(%"class.std::basic_ostream"* %160, i32 %161)
  %163 = call dereferenceable(272) %"class.std::basic_ostream"* @_ZStlsISt11char_traitsIcEERSt13basic_ostreamIcT_ES5_PKc(%"class.std::basic_ostream"* dereferenceable(272) %162, i8* getelementptr inbounds ([2 x i8], [2 x i8]* @.str, i64 0, i64 0))
  %164 = load i32, i32* %4, align 4
  %165 = call dereferenceable(272) %"class.std::basic_ostream"* @_ZNSolsEi(%"class.std::basic_ostream"* %163, i32 %164)
  %166 = call dereferenceable(272) %"class.std::basic_ostream"* @_ZStlsISt11char_traitsIcEERSt13basic_ostreamIcT_ES5_PKc(%"class.std::basic_ostream"* dereferenceable(272) %165, i8* getelementptr inbounds ([2 x i8], [2 x i8]* @.str, i64 0, i64 0))
  %167 = load i32, i32* %5, align 4
  %168 = call dereferenceable(272) %"class.std::basic_ostream"* @_ZNSolsEi(%"class.std::basic_ostream"* %166, i32 %167)
  %169 = call dereferenceable(272) %"class.std::basic_ostream"* @_ZStlsISt11char_traitsIcEERSt13basic_ostreamIcT_ES5_PKc(%"class.std::basic_ostream"* dereferenceable(272) %168, i8* getelementptr inbounds ([2 x i8], [2 x i8]* @.str, i64 0, i64 0))
  %170 = load i32, i32* %6, align 4
  %171 = call dereferenceable(272) %"class.std::basic_ostream"* @_ZNSolsEi(%"class.std::basic_ostream"* %169, i32 %170)
  store i32 0, i32* %1, align 4
  br label %193

172:                                              ; preds = %153, %149, %145, %141, %82
  br label %173

173:                                              ; preds = %172, %81, %74
  %174 = load i32, i32* %6, align 4
  %175 = add nsw i32 %174, 1
  store i32 %175, i32* %6, align 4
  br label %55

176:                                              ; preds = %55
  br label %177

177:                                              ; preds = %176, %53
  %178 = load i32, i32* %5, align 4
  %179 = add nsw i32 %178, 1
  store i32 %179, i32* %5, align 4
  br label %38

180:                                              ; preds = %38
  br label %181

181:                                              ; preds = %180, %36
  %182 = load i32, i32* %4, align 4
  %183 = add nsw i32 %182, 1
  store i32 %183, i32* %4, align 4
  br label %25

184:                                              ; preds = %25
  br label %185

185:                                              ; preds = %184, %23
  %186 = load i32, i32* %3, align 4
  %187 = add nsw i32 %186, 1
  store i32 %187, i32* %3, align 4
  br label %16

188:                                              ; preds = %16
  br label %189

189:                                              ; preds = %188
  %190 = load i32, i32* %2, align 4
  %191 = add nsw i32 %190, 1
  store i32 %191, i32* %2, align 4
  br label %12

192:                                              ; preds = %12
  store i32 0, i32* %1, align 4
  br label %193

193:                                              ; preds = %192, %157
  %194 = load i32, i32* %1, align 4
  ret i32 %194
}

declare dso_local dereferenceable(272) %"class.std::basic_ostream"* @_ZStlsISt11char_traitsIcEERSt13basic_ostreamIcT_ES5_PKc(%"class.std::basic_ostream"* dereferenceable(272), i8*) #1

declare dso_local dereferenceable(272) %"class.std::basic_ostream"* @_ZNSolsEi(%"class.std::basic_ostream"*, i32) #1

; Function Attrs: noinline uwtable
define internal void @_GLOBAL__sub_I_911.cpp() #0 section ".text.startup" {
  call void @__cxx_global_var_init()
  ret void
}


!llvm.module.flags = !{!0}
!llvm.ident = !{!1}

!0 = !{i32 1, !"wchar_size", i32 4}
!1 = !{!"clang version 10.0.0-4ubuntu1 "}
